(dp0
VautoUpdate
p1
I01
sVbackgroundUpdate
p2
I00
sVaddonStoreNotificationShown
p3
I00
sVupdateNotification
p4
Vtoast
p5
sVupdateSource
p6
Vnvdacn
p7
sVNVAccessAddonStoreViewsHash
p8
V
p9
sVlastChecked
p10
F1711776522.6061823
sVnoUpdates
p11
(lp12
sVdevUpdates
p13
(lp14
sVdevUpdateChannels
p15
(dp16
sVlegacyAddonsFound
p17
c__builtin__
set
p18
((lp19
tp20
Rp21
s.