(dp0
VautoUpdate
p1
I01
sVbackgroundUpdate
p2
I00
sVaddonStoreNotificationShown
p3
I00
sVupdateNotification
p4
Vtoast
p5
sVupdateSource
p6
Vnvdacn
p7
sVlastChecked
p8
F1680580830.3486032
sVnoUpdates
p9
(lp10
sVdevUpdates
p11
(lp12
sVdevUpdateChannels
p13
(dp14
sVlegacyAddonsFound
p15
c__builtin__
set
p16
((lp17
tp18
Rp19
s.